target datalayout = "e-m:e-p270:32:32-p271:32:32-p272:64:64-i64:64-i128:128-f80:128-n8:16:32:64-S128"
target triple = "x86_64-pc-linux-gnu"

@.str.14 = private unnamed_addr constant [27 x i8] c"../openssl/test/dtlstest.c\00", align 1
@cert = internal global ptr null, align 8
@privkey = internal global ptr null, align 8
@.str.25 = private unnamed_addr constant [117 x i8] c"create_ssl_ctx_pair(NULL, DTLS_server_method(), DTLS_client_method(), DTLS1_VERSION, 0, &sctx, &cctx, cert, privkey)\00", align 1
@.str.28 = private unnamed_addr constant [12 x i8] c"c_to_s_fbio\00", align 1
@.str.32 = private unnamed_addr constant [29 x i8] c"SSL_CTX_set_dh_auto(sctx, 1)\00", align 1
@.str.33 = private unnamed_addr constant [67 x i8] c"create_ssl_objects(sctx, cctx, &serverssl, &clientssl, NULL, NULL)\00", align 1
@.str.34 = private unnamed_addr constant [60 x i8] c"create_ssl_connection(serverssl, clientssl, SSL_ERROR_NONE)\00", align 1
@.str.35 = private unnamed_addr constant [35 x i8] c"sess = SSL_get1_session(clientssl)\00", align 1
@.str.36 = private unnamed_addr constant [74 x i8] c"create_ssl_objects(sctx, cctx, &serverssl, &clientssl, NULL, c_to_s_fbio)\00", align 1
@.str.37 = private unnamed_addr constant [33 x i8] c"SSL_set_session(clientssl, sess)\00", align 1
@.str.38 = private unnamed_addr constant [30 x i8] c"SSL_session_reused(clientssl)\00", align 1
@.str.39 = private unnamed_addr constant [64 x i8] c"(int)BIO_ctrl(mempackbio, MEMPACKET_CTRL_GET_DROP_REC, 0, NULL)\00", align 1
@.str.40 = private unnamed_addr constant [3 x i8] c"-1\00", align 1

; Function Attrs: nounwind uwtable
define internal i32 @test_dtls_drop_records(i32 noundef %0) #0 {
  %2 = alloca i32, align 4
  %3 = alloca i32, align 4
  %4 = alloca ptr, align 8
  %5 = alloca ptr, align 8
  %6 = alloca ptr, align 8
  %7 = alloca ptr, align 8
  %8 = alloca ptr, align 8
  %9 = alloca ptr, align 8
  %10 = alloca i32, align 4
  %11 = alloca i32, align 4
  %12 = alloca ptr, align 8
  %13 = alloca i32, align 4
  %14 = alloca i32, align 4
  %15 = alloca i32, align 4
  %16 = alloca i32, align 4
  %17 = alloca i32, align 4
  store i32 %0, ptr %3, align 4, !tbaa !9
  call void @llvm.lifetime.start.p0(i64 8, ptr %4) #5
  store ptr null, ptr %4, align 8, !tbaa !11
  call void @llvm.lifetime.start.p0(i64 8, ptr %5) #5
  store ptr null, ptr %5, align 8, !tbaa !11
  call void @llvm.lifetime.start.p0(i64 8, ptr %6) #5
  store ptr null, ptr %6, align 8, !tbaa !13
  call void @llvm.lifetime.start.p0(i64 8, ptr %7) #5
  store ptr null, ptr %7, align 8, !tbaa !13
  call void @llvm.lifetime.start.p0(i64 8, ptr %8) #5
  call void @llvm.lifetime.start.p0(i64 8, ptr %9) #5
  call void @llvm.lifetime.start.p0(i64 4, ptr %10) #5
  store i32 0, ptr %10, align 4, !tbaa !9
  call void @llvm.lifetime.start.p0(i64 4, ptr %11) #5
  store i32 0, ptr %11, align 4, !tbaa !9
  call void @llvm.lifetime.start.p0(i64 8, ptr %12) #5
  store ptr null, ptr %12, align 8, !tbaa !18
  call void @llvm.lifetime.start.p0(i64 4, ptr %13) #5
  call void @llvm.lifetime.start.p0(i64 4, ptr %14) #5
  call void @llvm.lifetime.start.p0(i64 4, ptr %15) #5
  call void @llvm.lifetime.start.p0(i64 4, ptr %16) #5
  %18 = call ptr @DTLS_server_method()
  %19 = call ptr @DTLS_client_method()
  %20 = load ptr, ptr @cert, align 8, !tbaa !4
  %21 = load ptr, ptr @privkey, align 8, !tbaa !4
  %22 = call i32 @create_ssl_ctx_pair(ptr noundef null, ptr noundef %18, ptr noundef %19, i32 noundef 65279, i32 noundef 0, ptr noundef %4, ptr noundef %5, ptr noundef %20, ptr noundef %21)
  %23 = icmp ne i32 %22, 0
  %24 = zext i1 %23 to i32
  %25 = call i32 @test_true(ptr noundef @.str.14, i32 noundef 205, ptr noundef @.str.25, i32 noundef %24)
  %26 = icmp ne i32 %25, 0
  br i1 %26, label %28, label %27

27:                                               ; preds = %1
  store i32 0, ptr %2, align 4
  store i32 1, ptr %17, align 4
  br label %195

28:                                               ; preds = %1
  %29 = load ptr, ptr %4, align 8, !tbaa !11
  %30 = call i64 @SSL_CTX_ctrl(ptr noundef %29, i32 noundef 118, i64 noundef 1, ptr noundef null)
  %31 = icmp ne i64 %30, 0
  %32 = zext i1 %31 to i32
  %33 = call i32 @test_true(ptr noundef @.str.14, i32 noundef 216, ptr noundef @.str.32, i32 noundef %32)
  %34 = icmp ne i32 %33, 0
  br i1 %34, label %36, label %35

35:                                               ; preds = %28
  br label %188

36:                                               ; preds = %28
  %37 = load ptr, ptr %4, align 8, !tbaa !11
  %38 = call i64 @SSL_CTX_set_options(ptr noundef %37, i64 noundef 8192)
  %39 = load ptr, ptr %4, align 8, !tbaa !11
  call void @SSL_CTX_set_cookie_generate_cb(ptr noundef %39, ptr noundef @generate_cookie_cb)
  %40 = load ptr, ptr %4, align 8, !tbaa !11
  call void @SSL_CTX_set_cookie_verify_cb(ptr noundef %40, ptr noundef @verify_cookie_cb)
  %41 = load i32, ptr %3, align 4, !tbaa !9
  %42 = icmp sge i32 %41, 17
  br i1 %42, label %43, label %74

43:                                               ; preds = %36
  %44 = load ptr, ptr %4, align 8, !tbaa !11
  %45 = load ptr, ptr %5, align 8, !tbaa !11
  %46 = call i32 @create_ssl_objects(ptr noundef %44, ptr noundef %45, ptr noundef %6, ptr noundef %7, ptr noundef null, ptr noundef null)
  %47 = icmp ne i32 %46, 0
  %48 = zext i1 %47 to i32
  %49 = call i32 @test_true(ptr noundef @.str.14, i32 noundef 226, ptr noundef @.str.33, i32 noundef %48)
  %50 = icmp ne i32 %49, 0
  br i1 %50, label %51, label %64

51:                                               ; preds = %43
  %52 = load ptr, ptr %6, align 8, !tbaa !13
  %53 = load ptr, ptr %7, align 8, !tbaa !13
  %54 = call i32 @create_ssl_connection(ptr noundef %52, ptr noundef %53, i32 noundef 0)
  %55 = icmp ne i32 %54, 0
  %56 = zext i1 %55 to i32
  %57 = call i32 @test_true(ptr noundef @.str.14, i32 noundef 228, ptr noundef @.str.34, i32 noundef %56)
  %58 = icmp ne i32 %57, 0
  br i1 %58, label %59, label %64

59:                                               ; preds = %51
  %60 = load ptr, ptr %7, align 8, !tbaa !13
  %61 = call ptr @SSL_get1_session(ptr noundef %60)
  store ptr %61, ptr %12, align 8, !tbaa !18
  %62 = call i32 @test_ptr(ptr noundef @.str.14, i32 noundef 229, ptr noundef @.str.35, ptr noundef %61)
  %63 = icmp ne i32 %62, 0
  br i1 %63, label %65, label %64

64:                                               ; preds = %59, %51, %43
  br label %188

65:                                               ; preds = %59
  %66 = load ptr, ptr %7, align 8, !tbaa !13
  %67 = call i32 @SSL_shutdown(ptr noundef %66)
  %68 = load ptr, ptr %6, align 8, !tbaa !13
  %69 = call i32 @SSL_shutdown(ptr noundef %68)
  %70 = load ptr, ptr %6, align 8, !tbaa !13
  call void @SSL_free(ptr noundef %70)
  %71 = load ptr, ptr %7, align 8, !tbaa !13
  call void @SSL_free(ptr noundef %71)
  store ptr null, ptr %7, align 8, !tbaa !13
  store ptr null, ptr %6, align 8, !tbaa !13
  store i32 3, ptr %14, align 4, !tbaa !9
  store i32 1, ptr %15, align 4, !tbaa !9
  store i32 2, ptr %16, align 4, !tbaa !9
  store i32 2, ptr %13, align 4, !tbaa !9
  %72 = load i32, ptr %3, align 4, !tbaa !9
  %73 = sub nsw i32 %72, 17
  store i32 %73, ptr %3, align 4, !tbaa !9
  br label %75

74:                                               ; preds = %36
  store i32 3, ptr %14, align 4, !tbaa !9
  store i32 1, ptr %15, align 4, !tbaa !9
  store i32 10, ptr %16, align 4, !tbaa !9
  store i32 1, ptr %13, align 4, !tbaa !9
  br label %75

75:                                               ; preds = %74, %65
  %76 = call ptr @bio_f_tls_dump_filter()
  %77 = call ptr @BIO_new(ptr noundef %76)
  store ptr %77, ptr %8, align 8, !tbaa !15
  %78 = load ptr, ptr %8, align 8, !tbaa !15
  %79 = call i32 @test_ptr(ptr noundef @.str.14, i32 noundef 251, ptr noundef @.str.28, ptr noundef %78)
  %80 = icmp ne i32 %79, 0
  br i1 %80, label %82, label %81

81:                                               ; preds = %75
  br label %188

82:                                               ; preds = %75
  %83 = load ptr, ptr %4, align 8, !tbaa !11
  %84 = load ptr, ptr %5, align 8, !tbaa !11
  %85 = load ptr, ptr %8, align 8, !tbaa !15
  %86 = call i32 @create_ssl_objects(ptr noundef %83, ptr noundef %84, ptr noundef %6, ptr noundef %7, ptr noundef null, ptr noundef %85)
  %87 = icmp ne i32 %86, 0
  %88 = zext i1 %87 to i32
  %89 = call i32 @test_true(ptr noundef @.str.14, i32 noundef 256, ptr noundef @.str.36, i32 noundef %88)
  %90 = icmp ne i32 %89, 0
  br i1 %90, label %92, label %91

91:                                               ; preds = %82
  br label %188

92:                                               ; preds = %82
  %93 = load ptr, ptr %12, align 8, !tbaa !18
  %94 = icmp ne ptr %93, null
  br i1 %94, label %95, label %105

95:                                               ; preds = %92
  %96 = load ptr, ptr %7, align 8, !tbaa !13
  %97 = load ptr, ptr %12, align 8, !tbaa !18
  %98 = call i32 @SSL_set_session(ptr noundef %96, ptr noundef %97)
  %99 = icmp ne i32 %98, 0
  %100 = zext i1 %99 to i32
  %101 = call i32 @test_true(ptr noundef @.str.14, i32 noundef 260, ptr noundef @.str.37, i32 noundef %100)
  %102 = icmp ne i32 %101, 0
  br i1 %102, label %104, label %103

103:                                              ; preds = %95
  br label %188

104:                                              ; preds = %95
  br label %105

105:                                              ; preds = %104, %92
  %106 = load ptr, ptr %7, align 8, !tbaa !13
  call void @DTLS_set_timer_cb(ptr noundef %106, ptr noundef @timer_cb)
  %107 = load ptr, ptr %6, align 8, !tbaa !13
  call void @DTLS_set_timer_cb(ptr noundef %107, ptr noundef @timer_cb)
  %108 = load i32, ptr %3, align 4, !tbaa !9
  %109 = load i32, ptr %13, align 4, !tbaa !9
  %110 = load i32, ptr %14, align 4, !tbaa !9
  %111 = add nsw i32 %109, %110
  %112 = load i32, ptr %15, align 4, !tbaa !9
  %113 = add nsw i32 %111, %112
  %114 = icmp sge i32 %108, %113
  br i1 %114, label %115, label %135

115:                                              ; preds = %105
  %116 = load ptr, ptr %6, align 8, !tbaa !13
  %117 = call ptr @SSL_get_wbio(ptr noundef %116)
  store ptr %117, ptr %9, align 8, !tbaa !15
  %118 = load i32, ptr %13, align 4, !tbaa !9
  %119 = load i32, ptr %14, align 4, !tbaa !9
  %120 = add nsw i32 %118, %119
  %121 = load i32, ptr %15, align 4, !tbaa !9
  %122 = add nsw i32 %120, %121
  %123 = load i32, ptr %3, align 4, !tbaa !9
  %124 = sub nsw i32 %123, %122
  store i32 %124, ptr %3, align 4, !tbaa !9
  %125 = load i32, ptr %3, align 4, !tbaa !9
  %126 = load i32, ptr %16, align 4, !tbaa !9
  %127 = add nsw i32 1, %126
  %128 = icmp sge i32 %125, %127
  br i1 %128, label %129, label %134

129:                                              ; preds = %115
  store i32 1, ptr %11, align 4, !tbaa !9
  %130 = load i32, ptr %16, align 4, !tbaa !9
  %131 = add nsw i32 1, %130
  %132 = load i32, ptr %3, align 4, !tbaa !9
  %133 = sub nsw i32 %132, %131
  store i32 %133, ptr %3, align 4, !tbaa !9
  br label %134

134:                                              ; preds = %129, %115
  br label %152

135:                                              ; preds = %105
  %136 = load ptr, ptr %7, align 8, !tbaa !13
  %137 = call ptr @SSL_get_wbio(ptr noundef %136)
  store ptr %137, ptr %9, align 8, !tbaa !15
  %138 = load i32, ptr %3, align 4, !tbaa !9
  %139 = load i32, ptr %13, align 4, !tbaa !9
  %140 = load i32, ptr %14, align 4, !tbaa !9
  %141 = add nsw i32 %139, %140
  %142 = icmp sge i32 %138, %141
  br i1 %142, label %143, label %149

143:                                              ; preds = %135
  store i32 1, ptr %11, align 4, !tbaa !9
  %144 = load i32, ptr %13, align 4, !tbaa !9
  %145 = load i32, ptr %14, align 4, !tbaa !9
  %146 = add nsw i32 %144, %145
  %147 = load i32, ptr %3, align 4, !tbaa !9
  %148 = sub nsw i32 %147, %146
  store i32 %148, ptr %3, align 4, !tbaa !9
  br label %149

149:                                              ; preds = %143, %135
  %150 = load ptr, ptr %9, align 8, !tbaa !15
  %151 = call ptr @BIO_next(ptr noundef %150)
  store ptr %151, ptr %9, align 8, !tbaa !15
  br label %152

152:                                              ; preds = %149, %134
  %153 = load ptr, ptr %9, align 8, !tbaa !15
  %154 = load i32, ptr %11, align 4, !tbaa !9
  %155 = sext i32 %154 to i64
  %156 = call i64 @BIO_ctrl(ptr noundef %153, i32 noundef 32768, i64 noundef %155, ptr noundef null)
  %157 = load ptr, ptr %9, align 8, !tbaa !15
  %158 = load i32, ptr %3, align 4, !tbaa !9
  %159 = sext i32 %158 to i64
  %160 = call i64 @BIO_ctrl(ptr noundef %157, i32 noundef 65536, i64 noundef %159, ptr noundef null)
  %161 = load ptr, ptr %6, align 8, !tbaa !13
  %162 = load ptr, ptr %7, align 8, !tbaa !13
  %163 = call i32 @create_ssl_connection(ptr noundef %161, ptr noundef %162, i32 noundef 0)
  %164 = icmp ne i32 %163, 0
  %165 = zext i1 %164 to i32
  %166 = call i32 @test_true(ptr noundef @.str.14, i32 noundef 286, ptr noundef @.str.34, i32 noundef %165)
  %167 = icmp ne i32 %166, 0
  br i1 %167, label %169, label %168

168:                                              ; preds = %152
  br label %188

169:                                              ; preds = %152
  %170 = load ptr, ptr %12, align 8, !tbaa !18
  %171 = icmp ne ptr %170, null
  br i1 %171, label %172, label %180

172:                                              ; preds = %169
  %173 = load ptr, ptr %7, align 8, !tbaa !13
  %174 = call i32 @SSL_session_reused(ptr noundef %173)
  %175 = icmp ne i32 %174, 0
  %176 = zext i1 %175 to i32
  %177 = call i32 @test_true(ptr noundef @.str.14, i32 noundef 289, ptr noundef @.str.38, i32 noundef %176)
  %178 = icmp ne i32 %177, 0
  br i1 %178, label %180, label %179

179:                                              ; preds = %172
  br label %188

180:                                              ; preds = %172, %169
  %181 = load ptr, ptr %9, align 8, !tbaa !15
  %182 = call i64 @BIO_ctrl(ptr noundef %181, i32 noundef 98304, i64 noundef 0, ptr noundef null)
  %183 = trunc i64 %182 to i32
  %184 = call i32 @test_int_eq(ptr noundef @.str.14, i32 noundef 294, ptr noundef @.str.39, ptr noundef @.str.40, i32 noundef %183, i32 noundef -1)
  %185 = icmp ne i32 %184, 0
  br i1 %185, label %187, label %186

186:                                              ; preds = %180
  br label %188

187:                                              ; preds = %180
  store i32 1, ptr %10, align 4, !tbaa !9
  br label %188

188:                                              ; preds = %187, %186, %179, %168, %103, %91, %81, %64, %35
  %189 = load ptr, ptr %12, align 8, !tbaa !18
  call void @SSL_SESSION_free(ptr noundef %189)
  %190 = load ptr, ptr %6, align 8, !tbaa !13
  call void @SSL_free(ptr noundef %190)
  %191 = load ptr, ptr %7, align 8, !tbaa !13
  call void @SSL_free(ptr noundef %191)
  %192 = load ptr, ptr %4, align 8, !tbaa !11
  call void @SSL_CTX_free(ptr noundef %192)
  %193 = load ptr, ptr %5, align 8, !tbaa !11
  call void @SSL_CTX_free(ptr noundef %193)
  %194 = load i32, ptr %10, align 4, !tbaa !9
  store i32 %194, ptr %2, align 4
  store i32 1, ptr %17, align 4
  br label %195

195:                                              ; preds = %188, %27
  call void @llvm.lifetime.end.p0(i64 4, ptr %16) #5
  call void @llvm.lifetime.end.p0(i64 4, ptr %15) #5
  call void @llvm.lifetime.end.p0(i64 4, ptr %14) #5
  call void @llvm.lifetime.end.p0(i64 4, ptr %13) #5
  call void @llvm.lifetime.end.p0(i64 8, ptr %12) #5
  call void @llvm.lifetime.end.p0(i64 4, ptr %11) #5
  call void @llvm.lifetime.end.p0(i64 4, ptr %10) #5
  call void @llvm.lifetime.end.p0(i64 8, ptr %9) #5
  call void @llvm.lifetime.end.p0(i64 8, ptr %8) #5
  call void @llvm.lifetime.end.p0(i64 8, ptr %7) #5
  call void @llvm.lifetime.end.p0(i64 8, ptr %6) #5
  call void @llvm.lifetime.end.p0(i64 8, ptr %5) #5
  call void @llvm.lifetime.end.p0(i64 8, ptr %4) #5
  %196 = load i32, ptr %2, align 4
  ret i32 %196
}