; Function Attrs: nounwind uwtable
define internal range(i32 0, 2) i32 @test_dtls_drop_records(i32 noundef %0) #1 {
  %2 = alloca ptr, align 8
  %3 = alloca ptr, align 8
  %4 = alloca ptr, align 8
  %5 = alloca ptr, align 8
  call void @llvm.lifetime.start.p0(i64 8, ptr nonnull %2) #8
  store ptr null, ptr %2, align 8, !tbaa !9
  call void @llvm.lifetime.start.p0(i64 8, ptr nonnull %3) #8
  store ptr null, ptr %3, align 8, !tbaa !9
  call void @llvm.lifetime.start.p0(i64 8, ptr nonnull %4) #8
  store ptr null, ptr %4, align 8, !tbaa !11
  call void @llvm.lifetime.start.p0(i64 8, ptr nonnull %5) #8
  store ptr null, ptr %5, align 8, !tbaa !11
  %6 = tail call ptr @DTLS_server_method() #8
  %7 = tail call ptr @DTLS_client_method() #8
  %8 = load ptr, ptr @cert, align 8, !tbaa !4
  %9 = load ptr, ptr @privkey, align 8, !tbaa !4
  %10 = call i32 @create_ssl_ctx_pair(ptr noundef null, ptr noundef %6, ptr noundef %7, i32 noundef 65279, i32 noundef 0, ptr noundef nonnull %2, ptr noundef nonnull %3, ptr noundef %8, ptr noundef %9) #8
  %11 = icmp ne i32 %10, 0
  %12 = zext i1 %11 to i32
  %13 = call i32 @test_true(ptr noundef nonnull @.str.14, i32 noundef 205, ptr noundef nonnull @.str.25, i32 noundef %12) #8
  %.not = icmp eq i32 %13, 0
  br i1 %.not, label %109, label %14

14:                                               ; preds = %1
  %15 = load ptr, ptr %2, align 8, !tbaa !9
  %16 = call i64 @SSL_CTX_ctrl(ptr noundef %15, i32 noundef 118, i64 noundef 1, ptr noundef null) #8
  %17 = icmp ne i64 %16, 0
  %18 = zext i1 %17 to i32
  %19 = call i32 @test_true(ptr noundef nonnull @.str.14, i32 noundef 216, ptr noundef nonnull @.str.32, i32 noundef %18) #8
  %.not51 = icmp eq i32 %19, 0
  br i1 %.not51, label %104, label %20

20:                                               ; preds = %14
  %21 = load ptr, ptr %2, align 8, !tbaa !9
  %22 = call i64 @SSL_CTX_set_options(ptr noundef %21, i64 noundef 8192) #8
  %23 = load ptr, ptr %2, align 8, !tbaa !9
  call void @SSL_CTX_set_cookie_generate_cb(ptr noundef %23, ptr noundef nonnull @generate_cookie_cb) #8
  %24 = load ptr, ptr %2, align 8, !tbaa !9
  call void @SSL_CTX_set_cookie_verify_cb(ptr noundef %24, ptr noundef nonnull @verify_cookie_cb) #8
  %25 = icmp sgt i32 %0, 16
  br i1 %25, label %26, label %52

26:                                               ; preds = %20
  %27 = load ptr, ptr %2, align 8, !tbaa !9
  %28 = load ptr, ptr %3, align 8, !tbaa !9
  %29 = call i32 @create_ssl_objects(ptr noundef %27, ptr noundef %28, ptr noundef nonnull %4, ptr noundef nonnull %5, ptr noundef null, ptr noundef null) #8
  %30 = icmp ne i32 %29, 0
  %31 = zext i1 %30 to i32
  %32 = call i32 @test_true(ptr noundef nonnull @.str.14, i32 noundef 226, ptr noundef nonnull @.str.33, i32 noundef %31) #8
  %.not52 = icmp eq i32 %32, 0
  br i1 %.not52, label %104, label %33

33:                                               ; preds = %26
  %34 = load ptr, ptr %4, align 8, !tbaa !11
  %35 = load ptr, ptr %5, align 8, !tbaa !11
  %36 = call i32 @create_ssl_connection(ptr noundef %34, ptr noundef %35, i32 noundef 0) #8
  %37 = icmp ne i32 %36, 0
  %38 = zext i1 %37 to i32
  %39 = call i32 @test_true(ptr noundef nonnull @.str.14, i32 noundef 228, ptr noundef nonnull @.str.34, i32 noundef %38) #8
  %.not53 = icmp eq i32 %39, 0
  br i1 %.not53, label %104, label %40

40:                                               ; preds = %33
  %41 = load ptr, ptr %5, align 8, !tbaa !11
  %42 = call ptr @SSL_get1_session(ptr noundef %41) #8
  %43 = call i32 @test_ptr(ptr noundef nonnull @.str.14, i32 noundef 229, ptr noundef nonnull @.str.35, ptr noundef %42) #8
  %.not54 = icmp eq i32 %43, 0
  br i1 %.not54, label %104, label %44

44:                                               ; preds = %40
  %45 = load ptr, ptr %5, align 8, !tbaa !11
  %46 = call i32 @SSL_shutdown(ptr noundef %45) #8
  %47 = load ptr, ptr %4, align 8, !tbaa !11
  %48 = call i32 @SSL_shutdown(ptr noundef %47) #8
  %49 = load ptr, ptr %4, align 8, !tbaa !11
  call void @SSL_free(ptr noundef %49) #8
  %50 = load ptr, ptr %5, align 8, !tbaa !11
  call void @SSL_free(ptr noundef %50) #8
  store ptr null, ptr %5, align 8, !tbaa !11
  store ptr null, ptr %4, align 8, !tbaa !11
  %51 = add nsw i32 %0, -17
  br label %52

52:                                               ; preds = %20, %44
  %.042 = phi i32 [ %51, %44 ], [ %0, %20 ]
  %.1 = phi ptr [ %42, %44 ], [ null, %20 ]
  %.035 = phi i32 [ 5, %44 ], [ 4, %20 ]
  %.0 = phi i32 [ 3, %44 ], [ 11, %20 ]
  %53 = call ptr @bio_f_tls_dump_filter() #8
  %54 = call ptr @BIO_new(ptr noundef %53) #8
  %55 = call i32 @test_ptr(ptr noundef nonnull @.str.14, i32 noundef 251, ptr noundef nonnull @.str.28, ptr noundef %54) #8
  %.not55 = icmp eq i32 %55, 0
  br i1 %.not55, label %104, label %56

56:                                               ; preds = %52
  %57 = load ptr, ptr %2, align 8, !tbaa !9
  %58 = load ptr, ptr %3, align 8, !tbaa !9
  %59 = call i32 @create_ssl_objects(ptr noundef %57, ptr noundef %58, ptr noundef nonnull %4, ptr noundef nonnull %5, ptr noundef null, ptr noundef %54) #8
  %60 = icmp ne i32 %59, 0
  %61 = zext i1 %60 to i32
  %62 = call i32 @test_true(ptr noundef nonnull @.str.14, i32 noundef 256, ptr noundef nonnull @.str.36, i32 noundef %61) #8
  %.not56 = icmp eq i32 %62, 0
  br i1 %.not56, label %104, label %63

63:                                               ; preds = %56
  %.not57 = icmp eq ptr %.1, null
  br i1 %.not57, label %70, label %64

64:                                               ; preds = %63
  %65 = load ptr, ptr %5, align 8, !tbaa !11
  %66 = call i32 @SSL_set_session(ptr noundef %65, ptr noundef nonnull %.1) #8
  %67 = icmp ne i32 %66, 0
  %68 = zext i1 %67 to i32
  %69 = call i32 @test_true(ptr noundef nonnull @.str.14, i32 noundef 260, ptr noundef nonnull @.str.37, i32 noundef %68) #8
  %.not58 = icmp eq i32 %69, 0
  br i1 %.not58, label %104, label %70

70:                                               ; preds = %64, %63
  %71 = load ptr, ptr %5, align 8, !tbaa !11
  call void @DTLS_set_timer_cb(ptr noundef %71, ptr noundef nonnull @timer_cb) #8
  %72 = load ptr, ptr %4, align 8, !tbaa !11
  call void @DTLS_set_timer_cb(ptr noundef %72, ptr noundef nonnull @timer_cb) #8
  %.not59.not = icmp sgt i32 %.042, %.035
  br i1 %.not59.not, label %73, label %78

73:                                               ; preds = %70
  %.neg = xor i32 %.035, -1
  %74 = load ptr, ptr %4, align 8, !tbaa !11
  %75 = call ptr @SSL_get_wbio(ptr noundef %74) #8
  %76 = add nsw i32 %.042, %.neg
  %.not61 = icmp sge i32 %76, %.0
  %77 = select i1 %.not61, i32 %.0, i32 0
  %spec.select = sub nsw i32 %76, %77
  br label %83

78:                                               ; preds = %70
  %79 = load ptr, ptr %5, align 8, !tbaa !11
  %80 = call ptr @SSL_get_wbio(ptr noundef %79) #8
  %.not60 = icmp sge i32 %.042, %.035
  %81 = select i1 %.not60, i32 %.035, i32 0
  %spec.select66 = sub nsw i32 %.042, %81
  %82 = call ptr @BIO_next(ptr noundef %80) #8
  br label %83

83:                                               ; preds = %73, %78
  %.143 = phi i32 [ %spec.select66, %78 ], [ %spec.select, %73 ]
  %.040 = phi ptr [ %82, %78 ], [ %75, %73 ]
  %.037.in = phi i1 [ %.not60, %78 ], [ %.not61, %73 ]
  %.037 = zext i1 %.037.in to i64
  %84 = call i64 @BIO_ctrl(ptr noundef %.040, i32 noundef 32768, i64 noundef %.037, ptr noundef null) #8
  %85 = sext i32 %.143 to i64
  %86 = call i64 @BIO_ctrl(ptr noundef %.040, i32 noundef 65536, i64 noundef %85, ptr noundef null) #8
  %87 = load ptr, ptr %4, align 8, !tbaa !11
  %88 = load ptr, ptr %5, align 8, !tbaa !11
  %89 = call i32 @create_ssl_connection(ptr noundef %87, ptr noundef %88, i32 noundef 0) #8
  %90 = icmp ne i32 %89, 0
  %91 = zext i1 %90 to i32
  %92 = call i32 @test_true(ptr noundef nonnull @.str.14, i32 noundef 286, ptr noundef nonnull @.str.34, i32 noundef %91) #8
  %.not62 = icmp eq i32 %92, 0
  br i1 %.not62, label %104, label %93

93:                                               ; preds = %83
  br i1 %.not57, label %100, label %94

94:                                               ; preds = %93
  %95 = load ptr, ptr %5, align 8, !tbaa !11
  %96 = call i32 @SSL_session_reused(ptr noundef %95) #8
  %97 = icmp ne i32 %96, 0
  %98 = zext i1 %97 to i32
  %99 = call i32 @test_true(ptr noundef nonnull @.str.14, i32 noundef 289, ptr noundef nonnull @.str.38, i32 noundef %98) #8
  %.not63 = icmp eq i32 %99, 0
  br i1 %.not63, label %104, label %100

100:                                              ; preds = %94, %93
  %101 = call i64 @BIO_ctrl(ptr noundef %.040, i32 noundef 98304, i64 noundef 0, ptr noundef null) #8
  %102 = trunc i64 %101 to i32
  %103 = call i32 @test_int_eq(ptr noundef nonnull @.str.14, i32 noundef 294, ptr noundef nonnull @.str.39, ptr noundef nonnull @.str.40, i32 noundef %102, i32 noundef -1) #8
  %.not64 = icmp ne i32 %103, 0
  %spec.select68 = zext i1 %.not64 to i32
  br label %104

104:                                              ; preds = %100, %94, %83, %64, %56, %52, %26, %33, %40, %14
  %.039 = phi i32 [ 0, %94 ], [ 0, %83 ], [ 0, %64 ], [ 0, %56 ], [ 0, %52 ], [ 0, %40 ], [ 0, %33 ], [ 0, %26 ], [ 0, %14 ], [ %spec.select68, %100 ]
  %.036 = phi ptr [ %.1, %94 ], [ %.1, %83 ], [ %.1, %64 ], [ %.1, %56 ], [ %.1, %52 ], [ %42, %40 ], [ null, %33 ], [ null, %26 ], [ null, %14 ], [ %.1, %100 ]
  call void @SSL_SESSION_free(ptr noundef %.036) #8
  %105 = load ptr, ptr %4, align 8, !tbaa !11
  call void @SSL_free(ptr noundef %105) #8
  %106 = load ptr, ptr %5, align 8, !tbaa !11
  call void @SSL_free(ptr noundef %106) #8
  %107 = load ptr, ptr %2, align 8, !tbaa !9
  call void @SSL_CTX_free(ptr noundef %107) #8
  %108 = load ptr, ptr %3, align 8, !tbaa !9
  call void @SSL_CTX_free(ptr noundef %108) #8
  br label %109

109:                                              ; preds = %1, %104
  %.041 = phi i32 [ %.039, %104 ], [ 0, %1 ]
  call void @llvm.lifetime.end.p0(i64 8, ptr nonnull %5) #8
  call void @llvm.lifetime.end.p0(i64 8, ptr nonnull %4) #8
  call void @llvm.lifetime.end.p0(i64 8, ptr nonnull %3) #8
  call void @llvm.lifetime.end.p0(i64 8, ptr nonnull %2) #8
  ret i32 %.041
}